target datalayout = "e-m:e-p270:32:32-p271:32:32-p272:64:64-i64:64-i128:128-f80:128-n8:16:32:64-S128"
target triple = "x86_64-pc-linux-gnu"

%struct.omp_module_nthreads_t = type { i32, i32, %"struct.gmx::EnumerationArray" }
%"struct.gmx::EnumerationArray" = type { [10 x i32] }
%class.anon.11 = type { i8 }

@.str.2 = private unnamed_addr constant [132 x i8] c"generated/home/dtcxzyw/WorkSpace/Projects/compilers/llvm-opt-benchmark/bench/gromacs/gromacs/src/gromacs/mdlib/gmx_omp_nthreads.cpp\00", align 1
@_ZL5modth = internal global %struct.omp_module_nthreads_t zeroinitializer, align 4
@.str.42 = private unnamed_addr constant [68 x i8] c"mod >= ModuleMultiThread::Default && mod < ModuleMultiThread::Count\00", align 1
@.str.43 = private unnamed_addr constant [48 x i8] c"Trying to set nthreads on invalid OpenMP module\00", align 1
@"__PRETTY_FUNCTION__._ZZ20gmx_omp_nthreads_set17ModuleMultiThreadiENK3$_0clEv" = private unnamed_addr constant [89 x i8] c"auto gmx_omp_nthreads_set(ModuleMultiThread, int)::(anonymous class)::operator()() const\00", align 1

; Function Attrs: mustprogress nounwind uwtable
define linkonce_odr noundef nonnull align 4 dereferenceable(4) ptr @_ZN3gmx16EnumerationArrayI17ModuleMultiThreadiLS1_10EEixES1_(ptr noundef nonnull align 4 dereferenceable(40) %0, i32 noundef %1) #3 comdat align 2 {
  %3 = alloca ptr, align 8
  %4 = alloca i32, align 4
  store ptr %0, ptr %3, align 8
  store i32 %1, ptr %4, align 4
  %5 = load ptr, ptr %3, align 8
  %6 = getelementptr inbounds %"struct.gmx::EnumerationArray", ptr %5, i32 0, i32 0
  %7 = load i32, ptr %4, align 4
  %8 = sext i32 %7 to i64
  %9 = getelementptr inbounds [10 x i32], ptr %6, i64 0, i64 %8
  ret ptr %9
}

; Function Attrs: mustprogress uwtable
define internal void @"_ZZ20gmx_omp_nthreads_set17ModuleMultiThreadiENK3$_0clEv"(ptr noundef nonnull align 1 dereferenceable(1) %0) #0 align 2 {
  %2 = alloca ptr, align 8
  store ptr %0, ptr %2, align 8
  call void @_ZN3gmx8internal13assertHandlerEPKcS2_S2_S2_i(ptr noundef @.str.42, ptr noundef @.str.43, ptr noundef @"__PRETTY_FUNCTION__._ZZ20gmx_omp_nthreads_set17ModuleMultiThreadiENK3$_0clEv", ptr noundef @.str.2, i32 noundef 511) #10
  unreachable
}

; Function Attrs: mustprogress uwtable
define void @_Z20gmx_omp_nthreads_set17ModuleMultiThreadi(i32 noundef %0, i32 noundef %1) #0 {
  %3 = alloca i32, align 4
  %4 = alloca i32, align 4
  %5 = alloca %class.anon.11, align 1
  store i32 %0, ptr %3, align 4
  store i32 %1, ptr %4, align 4
  %6 = load i32, ptr %3, align 4
  %7 = icmp sge i32 %6, 0
  br i1 %7, label %8, label %12

8:                                                ; preds = %2
  %9 = load i32, ptr %3, align 4
  %10 = icmp slt i32 %9, 10
  br i1 %10, label %11, label %12

11:                                               ; preds = %8
  br label %13

12:                                               ; preds = %8, %2
  call void @"_ZZ20gmx_omp_nthreads_set17ModuleMultiThreadiENK3$_0clEv"(ptr noundef nonnull align 1 dereferenceable(1) %5)
  br label %13

13:                                               ; preds = %12, %11
  %14 = load i32, ptr %4, align 4
  %15 = load i32, ptr %3, align 4
  %16 = call noundef nonnull align 4 dereferenceable(4) ptr @_ZN3gmx16EnumerationArrayI17ModuleMultiThreadiLS1_10EEixES1_(ptr noundef nonnull align 4 dereferenceable(40) getelementptr inbounds (%struct.omp_module_nthreads_t, ptr @_ZL5modth, i32 0, i32 2), i32 noundef %15)
  store i32 %14, ptr %16, align 4
  ret void
}