; Function Attrs: mustprogress uwtable
define void @_Z20gmx_omp_nthreads_set17ModuleMultiThreadi(i32 noundef %0, i32 noundef %1) local_unnamed_addr #0 {
  %or.cond = icmp ult i32 %0, 10
  br i1 %or.cond, label %4, label %3

3:                                                ; preds = %2
  tail call void @_ZN3gmx8internal13assertHandlerEPKcS2_S2_S2_i(ptr noundef nonnull @.str.42, ptr noundef nonnull @.str.43, ptr noundef nonnull @"__PRETTY_FUNCTION__._ZZ20gmx_omp_nthreads_set17ModuleMultiThreadiENK3$_0clEv", ptr noundef nonnull @.str.2, i32 noundef 511) #13
  unreachable

4:                                                ; preds = %2
  %5 = zext nneg i32 %0 to i64
  %6 = getelementptr inbounds [10 x i32], ptr getelementptr inbounds (%struct.omp_module_nthreads_t, ptr @_ZL5modth, i64 0, i32 2), i64 0, i64 %5
  store i32 %1, ptr %6, align 4
  ret void
}